; Function Attrs: mustprogress nounwind uwtable
define hidden void @_ZN14JfrArtifactSet5clearEv(ptr nocapture noundef nonnull readonly align 8 dereferenceable(41) %0) local_unnamed_addr #0 align 2 {
  %2 = load ptr, ptr %0, align 8
  %.not = icmp eq ptr %2, null
  br i1 %.not, label %4, label %3

3:                                                ; preds = %1
  tail call void @_ZN14JfrSymbolTable5clearEv(ptr noundef nonnull align 8 dereferenceable(57) %2) #8
  br label %4

4:                                                ; preds = %3, %1
  ret void
}